target datalayout = "e-m:e-p270:32:32-p271:32:32-p272:64:64-i64:64-i128:128-f80:128-n8:16:32:64-S128"
target triple = "x86_64-unknown-linux-gnu"

@_ZN6icu_755Grego12MONTH_LENGTHE = external constant [24 x i8], align 16

; Function Attrs: mustprogress nounwind uwtable
define linkonce_odr noundef signext i8 @_ZN6icu_755Grego10isLeapYearEi(i32 noundef %year) #2 comdat align 2 {
entry:
  %year.addr = alloca i32, align 4
  store i32 %year, ptr %year.addr, align 4
  %0 = load i32, ptr %year.addr, align 4
  %and = and i32 %0, 3
  %cmp = icmp eq i32 %and, 0
  br i1 %cmp, label %land.rhs, label %land.end

land.rhs:                                         ; preds = %entry
  %1 = load i32, ptr %year.addr, align 4
  %rem = srem i32 %1, 100
  %cmp1 = icmp ne i32 %rem, 0
  br i1 %cmp1, label %lor.end, label %lor.rhs

lor.rhs:                                          ; preds = %land.rhs
  %2 = load i32, ptr %year.addr, align 4
  %rem2 = srem i32 %2, 400
  %cmp3 = icmp eq i32 %rem2, 0
  br label %lor.end

lor.end:                                          ; preds = %lor.rhs, %land.rhs
  %3 = phi i1 [ true, %land.rhs ], [ %cmp3, %lor.rhs ]
  br label %land.end

land.end:                                         ; preds = %lor.end, %entry
  %4 = phi i1 [ false, %entry ], [ %3, %lor.end ]
  %conv = zext i1 %4 to i8
  ret i8 %conv
}

; Function Attrs: mustprogress uwtable
define linkonce_odr noundef signext i8 @_ZN6icu_755Grego11monthLengthEii(i32 noundef %year, i32 noundef %month) #0 comdat align 2 {
entry:
  %year.addr = alloca i32, align 4
  %month.addr = alloca i32, align 4
  store i32 %year, ptr %year.addr, align 4
  store i32 %month, ptr %month.addr, align 4
  %0 = load i32, ptr %month.addr, align 4
  %1 = load i32, ptr %year.addr, align 4
  %call = call noundef signext i8 @_ZN6icu_755Grego10isLeapYearEi(i32 noundef %1)
  %tobool = icmp ne i8 %call, 0
  %cond = select i1 %tobool, i32 12, i32 0
  %add = add nsw i32 %0, %cond
  %idxprom = sext i32 %add to i64
  %arrayidx = getelementptr inbounds [24 x i8], ptr @_ZN6icu_755Grego12MONTH_LENGTHE, i64 0, i64 %idxprom
  %2 = load i8, ptr %arrayidx, align 1
  ret i8 %2
}

; Function Attrs: mustprogress uwtable
define linkonce_odr void @_ZN6icu_755Grego11dayToFieldsEiRiS1_S1_S1_(i32 noundef %day, ptr noundef nonnull align 4 dereferenceable(4) %year, ptr noundef nonnull align 4 dereferenceable(4) %month, ptr noundef nonnull align 4 dereferenceable(4) %dom, ptr noundef nonnull align 4 dereferenceable(4) %dow) #0 comdat align 2 {
entry:
  %day.addr = alloca i32, align 4
  %year.addr = alloca ptr, align 8
  %month.addr = alloca ptr, align 8
  %dom.addr = alloca ptr, align 8
  %dow.addr = alloca ptr, align 8
  %doy_unused = alloca i32, align 4
  store i32 %day, ptr %day.addr, align 4
  store ptr %year, ptr %year.addr, align 8
  store ptr %month, ptr %month.addr, align 8
  store ptr %dom, ptr %dom.addr, align 8
  store ptr %dow, ptr %dow.addr, align 8
  %0 = load i32, ptr %day.addr, align 4
  %1 = load ptr, ptr %year.addr, align 8
  %2 = load ptr, ptr %month.addr, align 8
  %3 = load ptr, ptr %dom.addr, align 8
  %4 = load ptr, ptr %dow.addr, align 8
  call void @_ZN6icu_755Grego11dayToFieldsEiRiS1_S1_S1_S1_(i32 noundef %0, ptr noundef nonnull align 4 dereferenceable(4) %1, ptr noundef nonnull align 4 dereferenceable(4) %2, ptr noundef nonnull align 4 dereferenceable(4) %3, ptr noundef nonnull align 4 dereferenceable(4) %4, ptr noundef nonnull align 4 dereferenceable(4) %doy_unused)
  ret void
}

; Function Attrs: mustprogress nounwind uwtable
define internal noundef signext i8 @_ZL9U_FAILURE10UErrorCode(i32 noundef %code) #2 {
entry:
  %code.addr = alloca i32, align 4
  store i32 %code, ptr %code.addr, align 4
  %0 = load i32, ptr %code.addr, align 4
  %cmp = icmp sgt i32 %0, 0
  %conv = zext i1 %cmp to i8
  ret i8 %conv
}

; Function Attrs: mustprogress uwtable
define void @_ZNK6icu_758TimeZone9getOffsetEdaRiS1_R10UErrorCode(ptr noundef nonnull align 8 dereferenceable(72) %this, double noundef %date, i8 noundef signext %local, ptr noundef nonnull align 4 dereferenceable(4) %rawOffset, ptr noundef nonnull align 4 dereferenceable(4) %dstOffset, ptr noundef nonnull align 4 dereferenceable(4) %ec) unnamed_addr #0 align 2 {
entry:
  %this.addr = alloca ptr, align 8
  %date.addr = alloca double, align 8
  %local.addr = alloca i8, align 1
  %rawOffset.addr = alloca ptr, align 8
  %dstOffset.addr = alloca ptr, align 8
  %ec.addr = alloca ptr, align 8
  %pass = alloca i32, align 4
  %year = alloca i32, align 4
  %month = alloca i32, align 4
  %dom = alloca i32, align 4
  %dow = alloca i32, align 4
  %millis = alloca i32, align 4
  %day = alloca double, align 8
  store ptr %this, ptr %this.addr, align 8
  store double %date, ptr %date.addr, align 8
  store i8 %local, ptr %local.addr, align 1
  store ptr %rawOffset, ptr %rawOffset.addr, align 8
  store ptr %dstOffset, ptr %dstOffset.addr, align 8
  store ptr %ec, ptr %ec.addr, align 8
  %this1 = load ptr, ptr %this.addr, align 8
  %0 = load ptr, ptr %ec.addr, align 8
  %1 = load i32, ptr %0, align 4
  %call = call noundef signext i8 @_ZL9U_FAILURE10UErrorCode(i32 noundef %1)
  %tobool = icmp ne i8 %call, 0
  br i1 %tobool, label %if.then, label %if.end

if.then:                                          ; preds = %entry
  br label %for.end

if.end:                                           ; preds = %entry
  %vtable = load ptr, ptr %this1, align 8
  %vfn = getelementptr inbounds ptr, ptr %vtable, i64 8
  %2 = load ptr, ptr %vfn, align 8
  %call2 = call noundef i32 %2(ptr noundef nonnull align 8 dereferenceable(72) %this1)
  %3 = load ptr, ptr %rawOffset.addr, align 8
  store i32 %call2, ptr %3, align 4
  %4 = load i8, ptr %local.addr, align 1
  %tobool3 = icmp ne i8 %4, 0
  br i1 %tobool3, label %if.end5, label %if.then4

if.then4:                                         ; preds = %if.end
  %5 = load ptr, ptr %rawOffset.addr, align 8
  %6 = load i32, ptr %5, align 4
  %conv = sitofp i32 %6 to double
  %7 = load double, ptr %date.addr, align 8
  %add = fadd double %7, %conv
  store double %add, ptr %date.addr, align 8
  br label %if.end5

if.end5:                                          ; preds = %if.then4, %if.end
  store i32 0, ptr %pass, align 4
  br label %for.cond

for.cond:                                         ; preds = %for.inc, %if.end5
  %8 = load double, ptr %date.addr, align 8
  %call6 = call noundef i32 @_ZN6icu_759ClockMath11floorDivideEdiPi(double noundef %8, i32 noundef 86400000, ptr noundef %millis)
  %conv7 = sitofp i32 %call6 to double
  store double %conv7, ptr %day, align 8
  %9 = load double, ptr %day, align 8
  %conv8 = fptosi double %9 to i32
  call void @_ZN6icu_755Grego11dayToFieldsEiRiS1_S1_S1_(i32 noundef %conv8, ptr noundef nonnull align 4 dereferenceable(4) %year, ptr noundef nonnull align 4 dereferenceable(4) %month, ptr noundef nonnull align 4 dereferenceable(4) %dom, ptr noundef nonnull align 4 dereferenceable(4) %dow)
  %10 = load i32, ptr %year, align 4
  %11 = load i32, ptr %month, align 4
  %12 = load i32, ptr %dom, align 4
  %13 = load i32, ptr %dow, align 4
  %conv9 = trunc i32 %13 to i8
  %14 = load i32, ptr %millis, align 4
  %15 = load i32, ptr %year, align 4
  %16 = load i32, ptr %month, align 4
  %call10 = call noundef signext i8 @_ZN6icu_755Grego11monthLengthEii(i32 noundef %15, i32 noundef %16)
  %conv11 = sext i8 %call10 to i32
  %17 = load ptr, ptr %ec.addr, align 8
  %vtable12 = load ptr, ptr %this1, align 8
  %vfn13 = getelementptr inbounds ptr, ptr %vtable12, i64 5
  %18 = load ptr, ptr %vfn13, align 8
  %call14 = call noundef i32 %18(ptr noundef nonnull align 8 dereferenceable(72) %this1, i8 noundef zeroext 1, i32 noundef %10, i32 noundef %11, i32 noundef %12, i8 noundef zeroext %conv9, i32 noundef %14, i32 noundef %conv11, ptr noundef nonnull align 4 dereferenceable(4) %17)
  %19 = load ptr, ptr %rawOffset.addr, align 8
  %20 = load i32, ptr %19, align 4
  %sub = sub nsw i32 %call14, %20
  %21 = load ptr, ptr %dstOffset.addr, align 8
  store i32 %sub, ptr %21, align 4
  %22 = load i32, ptr %pass, align 4
  %cmp = icmp ne i32 %22, 0
  br i1 %cmp, label %if.then18, label %lor.lhs.false

lor.lhs.false:                                    ; preds = %for.cond
  %23 = load i8, ptr %local.addr, align 1
  %tobool15 = icmp ne i8 %23, 0
  br i1 %tobool15, label %lor.lhs.false16, label %if.then18

lor.lhs.false16:                                  ; preds = %lor.lhs.false
  %24 = load ptr, ptr %dstOffset.addr, align 8
  %25 = load i32, ptr %24, align 4
  %cmp17 = icmp eq i32 %25, 0
  br i1 %cmp17, label %if.then18, label %if.end19

if.then18:                                        ; preds = %lor.lhs.false16, %lor.lhs.false, %for.cond
  br label %for.end

if.end19:                                         ; preds = %lor.lhs.false16
  %26 = load ptr, ptr %dstOffset.addr, align 8
  %27 = load i32, ptr %26, align 4
  %conv20 = sitofp i32 %27 to double
  %28 = load double, ptr %date.addr, align 8
  %sub21 = fsub double %28, %conv20
  store double %sub21, ptr %date.addr, align 8
  br label %for.inc

for.inc:                                          ; preds = %if.end19
  %29 = load i32, ptr %pass, align 4
  %inc = add nsw i32 %29, 1
  store i32 %inc, ptr %pass, align 4
  br label %for.cond, !llvm.loop !5

for.end:                                          ; preds = %if.then18, %if.then
  ret void
}