; Function Attrs: mustprogress uwtable
define void @_ZNK6icu_758TimeZone9getOffsetEdaRiS1_R10UErrorCode(ptr noundef nonnull align 8 dereferenceable(72) %this, double noundef %date, i8 noundef signext %local, ptr nocapture noundef nonnull align 4 dereferenceable(4) %rawOffset, ptr nocapture noundef nonnull writeonly align 4 dereferenceable(4) %dstOffset, ptr noundef nonnull align 4 dereferenceable(4) %ec) unnamed_addr #0 align 2 {
entry:
  %doy_unused.i = alloca i32, align 4
  %year = alloca i32, align 4
  %month = alloca i32, align 4
  %dom = alloca i32, align 4
  %dow = alloca i32, align 4
  %millis = alloca i32, align 4
  %0 = load i32, ptr %ec, align 4
  %cmp.i = icmp slt i32 %0, 1
  br i1 %cmp.i, label %if.end, label %for.end

if.end:                                           ; preds = %entry
  %vtable = load ptr, ptr %this, align 8
  %vfn = getelementptr inbounds i8, ptr %vtable, i64 64
  %1 = load ptr, ptr %vfn, align 8
  %call2 = tail call noundef i32 %1(ptr noundef nonnull align 8 dereferenceable(72) %this)
  store i32 %call2, ptr %rawOffset, align 4
  %tobool3 = icmp eq i8 %local, 0
  %conv = sitofp i32 %call2 to double
  %add = fadd double %conv, %date
  %date.addr.0 = select i1 %tobool3, double %add, double %date
  br label %for.cond

for.cond:                                         ; preds = %if.end19, %if.end
  %cmp.not = phi i1 [ false, %if.end ], [ true, %if.end19 ]
  %date.addr.1 = phi double [ %date.addr.0, %if.end ], [ %sub21, %if.end19 ]
  %call6 = call noundef i32 @_ZN6icu_759ClockMath11floorDivideEdiPi(double noundef %date.addr.1, i32 noundef 86400000, ptr noundef nonnull %millis)
  call void @llvm.lifetime.start.p0(i64 4, ptr nonnull %doy_unused.i)
  call void @_ZN6icu_755Grego11dayToFieldsEiRiS1_S1_S1_S1_(i32 noundef %call6, ptr noundef nonnull align 4 dereferenceable(4) %year, ptr noundef nonnull align 4 dereferenceable(4) %month, ptr noundef nonnull align 4 dereferenceable(4) %dom, ptr noundef nonnull align 4 dereferenceable(4) %dow, ptr noundef nonnull align 4 dereferenceable(4) %doy_unused.i)
  call void @llvm.lifetime.end.p0(i64 4, ptr nonnull %doy_unused.i)
  %2 = load i32, ptr %year, align 4
  %3 = load i32, ptr %month, align 4
  %4 = load i32, ptr %dom, align 4
  %5 = load i32, ptr %dow, align 4
  %conv9 = trunc i32 %5 to i8
  %6 = load i32, ptr %millis, align 4
  %and.i.i = and i32 %2, 3
  %cmp.i.i = icmp eq i32 %and.i.i, 0
  br i1 %cmp.i.i, label %land.rhs.i.i, label %_ZN6icu_755Grego10isLeapYearEi.exit.thread.i

land.rhs.i.i:                                     ; preds = %for.cond
  %rem.i.i = srem i32 %2, 100
  %cmp1.not.i.i = icmp ne i32 %rem.i.i, 0
  %rem2.i.i = srem i32 %2, 400
  %cmp3.i.not.i = icmp eq i32 %rem2.i.i, 0
  %or.cond.i = or i1 %cmp1.not.i.i, %cmp3.i.not.i
  br i1 %or.cond.i, label %_ZN6icu_755Grego11monthLengthEii.exit, label %_ZN6icu_755Grego10isLeapYearEi.exit.thread.i

_ZN6icu_755Grego10isLeapYearEi.exit.thread.i:     ; preds = %land.rhs.i.i, %for.cond
  br label %_ZN6icu_755Grego11monthLengthEii.exit

_ZN6icu_755Grego11monthLengthEii.exit:            ; preds = %land.rhs.i.i, %_ZN6icu_755Grego10isLeapYearEi.exit.thread.i
  %7 = phi i32 [ 0, %_ZN6icu_755Grego10isLeapYearEi.exit.thread.i ], [ 12, %land.rhs.i.i ]
  %add.i = add nsw i32 %7, %3
  %idxprom.i = sext i32 %add.i to i64
  %arrayidx.i = getelementptr inbounds [24 x i8], ptr @_ZN6icu_755Grego12MONTH_LENGTHE, i64 0, i64 %idxprom.i
  %8 = load i8, ptr %arrayidx.i, align 1
  %conv11 = sext i8 %8 to i32
  %vtable12 = load ptr, ptr %this, align 8
  %vfn13 = getelementptr inbounds i8, ptr %vtable12, i64 40
  %9 = load ptr, ptr %vfn13, align 8
  %call14 = call noundef i32 %9(ptr noundef nonnull align 8 dereferenceable(72) %this, i8 noundef zeroext 1, i32 noundef %2, i32 noundef %3, i32 noundef %4, i8 noundef zeroext %conv9, i32 noundef %6, i32 noundef %conv11, ptr noundef nonnull align 4 dereferenceable(4) %ec)
  %10 = load i32, ptr %rawOffset, align 4
  %sub = sub nsw i32 %call14, %10
  store i32 %sub, ptr %dstOffset, align 4
  %or.cond.not11 = or i1 %tobool3, %cmp.not
  %cmp17 = icmp eq i32 %call14, %10
  %or.cond10 = select i1 %or.cond.not11, i1 true, i1 %cmp17
  br i1 %or.cond10, label %for.end, label %if.end19

if.end19:                                         ; preds = %_ZN6icu_755Grego11monthLengthEii.exit
  %conv20 = sitofp i32 %sub to double
  %sub21 = fsub double %date.addr.1, %conv20
  br label %for.cond, !llvm.loop !6

for.end:                                          ; preds = %_ZN6icu_755Grego11monthLengthEii.exit, %entry
  ret void
}